(lp0
S'poi'
p1
aS'loan_advances'
p2
aS'exercised_stock_options'
p3
aS'total_payments'
p4
aS'long_term_incentive'
p5
aS'to_poi_percent'
p6
aS'expenses'
p7
aS'shared_receipt_with_poi'
p8
aS'total_stock_value'
p9
aS'bonus'
p10
aS'salary'
p11
aS'restricted_stock'
p12
aS'deferred_income'
p13
a.